Certificate:
    Data:
        Version: 3 (0x2)
        Serial Number: 1 (0x1)
    Signature Algorithm: sha256WithRSAEncryption
        Issuer: CN=devcert
        Validity
            Not Before: Jul 16 15:43:51 2022 GMT
            Not After : Oct 18 15:43:51 2024 GMT
        Subject: CN=localhost
        Subject Public Key Info:
            Public Key Algorithm: rsaEncryption
                Public-Key: (2048 bit)
                Modulus:
                    00:bf:5f:38:b8:5f:62:8c:a3:c3:95:86:4f:13:bf:
                    eb:f2:9e:5a:32:ba:39:2f:90:cf:ce:a3:65:63:42:
                    8c:50:18:87:b9:da:e8:a2:ce:9f:d0:5c:7d:01:64:
                    a3:ee:ec:3b:83:3e:9b:74:31:d2:04:fb:6e:9d:2c:
                    d3:8e:2f:17:d4:63:92:c3:2c:d7:40:ec:23:a1:54:
                    58:2b:12:79:d6:44:e1:98:1a:42:ea:7c:c9:3f:64:
                    63:40:ca:bd:be:2d:7e:f2:02:41:65:cf:9a:f0:2a:
                    8a:45:68:ae:1b:38:ed:6d:e5:d7:c2:72:34:d6:cd:
                    d2:9d:cb:9b:60:9d:95:4e:e4:01:b8:53:c3:5f:b6:
                    e5:0f:e1:ef:9a:ab:f5:70:8f:63:26:6a:ee:50:8e:
                    6e:43:aa:c9:f6:c9:b5:12:7f:da:21:b7:9c:85:83:
                    16:14:49:a7:16:1d:22:9d:e3:ea:f6:ae:24:93:07:
                    50:86:3c:04:11:d7:45:7a:1a:d2:d2:bb:af:f8:3e:
                    a0:00:a6:e5:b0:02:5e:a0:63:00:50:17:f5:fb:f7:
                    a6:8e:a4:e2:b2:c1:fd:10:2d:87:44:a5:13:ed:8b:
                    03:ab:80:b7:75:af:10:2d:45:68:7c:00:1e:e0:85:
                    01:b6:91:5d:15:4f:ff:ec:20:0d:80:f7:0a:6a:b6:
                    0a:9f
                Exponent: 65537 (0x10001)
        X509v3 extensions:
            X509v3 Basic Constraints: critical
                CA:FALSE
            X509v3 Subject Key Identifier: 
                1A:5C:C7:3A:FE:4D:61:B7:BD:BE:F4:D5:17:2D:0B:14:31:56:89:54
            X509v3 Authority Key Identifier: 
                keyid:F0:FC:35:9F:58:08:9F:23:EC:3D:AC:9C:E9:14:E2:A7:A4:B4:8E:2A
                DirName:/CN=devcert
                serial:AB:DE:D5:04:D1:02:DE:84

            X509v3 Key Usage: critical
                Digital Signature, Key Encipherment
            X509v3 Extended Key Usage: 
                TLS Web Server Authentication
            X509v3 Subject Alternative Name: 
                DNS:localhost, DNS:*.localhost
    Signature Algorithm: sha256WithRSAEncryption
         97:52:22:d9:25:1e:87:08:69:d6:ff:43:98:c5:7b:3b:b6:99:
         fa:3e:d3:c9:89:94:ab:3b:18:32:03:ac:66:93:d8:38:f0:d6:
         72:31:f6:7c:85:47:35:4a:98:71:99:43:c9:b9:4f:32:fc:66:
         0e:6a:8c:b3:51:51:d2:40:bd:be:75:aa:bb:f7:c6:9a:dc:b1:
         df:0f:7f:d3:c8:4a:18:7e:5d:ee:fe:b2:ca:dd:85:da:9d:6d:
         ad:61:f8:71:92:ef:77:f5:1a:61:87:ff:8b:1f:70:40:ec:c1:
         cb:67:04:08:25:d4:ff:00:8c:92:cc:70:19:82:37:32:7b:03:
         65:76:be:bb:90:98:61:03:fb:cc:10:e6:00:25:45:a6:3b:75:
         62:9f:ef:f3:65:22:60:b4:30:8f:34:44:d0:f8:64:f2:80:44:
         17:8c:fd:41:a9:5e:dc:e1:ae:fe:c5:d8:98:6e:dc:3d:54:f7:
         d0:d6:ef:d5:9b:e3:bb:35:a8:6a:84:1d:db:a2:75:ed:6d:7b:
         ec:a2:a1:15:b2:1a:11:0f:18:bc:a7:2b:83:41:54:f6:1c:24:
         b4:83:79:2f:51:fc:ad:81:69:1b:4f:5e:dc:4e:c0:25:99:bb:
         90:05:e0:ad:ba:26:55:3c:40:5c:69:6b:2e:06:2d:68:42:6f:
         ea:c9:7a:07
-----BEGIN CERTIFICATE-----
MIIDXjCCAkagAwIBAgIBATANBgkqhkiG9w0BAQsFADASMRAwDgYDVQQDDAdkZXZj
ZXJ0MB4XDTIyMDcxNjE1NDM1MVoXDTI0MTAxODE1NDM1MVowFDESMBAGA1UEAwwJ
bG9jYWxob3N0MIIBIjANBgkqhkiG9w0BAQEFAAOCAQ8AMIIBCgKCAQEAv184uF9i
jKPDlYZPE7/r8p5aMro5L5DPzqNlY0KMUBiHudroos6f0Fx9AWSj7uw7gz6bdDHS
BPtunSzTji8X1GOSwyzXQOwjoVRYKxJ51kThmBpC6nzJP2RjQMq9vi1+8gJBZc+a
8CqKRWiuGzjtbeXXwnI01s3SncubYJ2VTuQBuFPDX7blD+Hvmqv1cI9jJmruUI5u
Q6rJ9sm1En/aIbechYMWFEmnFh0inePq9q4kkwdQhjwEEddFehrS0ruv+D6gAKbl
sAJeoGMAUBf1+/emjqTissH9EC2HRKUT7YsDq4C3da8QLUVofAAe4IUBtpFdFU//
7CANgPcKarYKnwIDAQABo4G8MIG5MAwGA1UdEwEB/wQCMAAwHQYDVR0OBBYEFBpc
xzr+TWG3vb701RctCxQxVolUMEIGA1UdIwQ7MDmAFPD8NZ9YCJ8j7D2snOkU4qek
tI4qoRakFDASMRAwDgYDVQQDDAdkZXZjZXJ0ggkAq97VBNEC3oQwDgYDVR0PAQH/
BAQDAgWgMBMGA1UdJQQMMAoGCCsGAQUFBwMBMCEGA1UdEQQaMBiCCWxvY2FsaG9z
dIILKi5sb2NhbGhvc3QwDQYJKoZIhvcNAQELBQADggEBAJdSItklHocIadb/Q5jF
ezu2mfo+08mJlKs7GDIDrGaT2Djw1nIx9nyFRzVKmHGZQ8m5TzL8Zg5qjLNRUdJA
vb51qrv3xprcsd8Pf9PIShh+Xe7+ssrdhdqdba1h+HGS73f1GmGH/4sfcEDswctn
BAgl1P8AjJLMcBmCNzJ7A2V2vruQmGED+8wQ5gAlRaY7dWKf7/NlImC0MI80RND4
ZPKARBeM/UGpXtzhrv7F2Jhu3D1U99DW79Wb47s1qGqEHduide1te+yioRWyGhEP
GLynK4NBVPYcJLSDeS9R/K2BaRtPXtxOwCWZu5AF4K26JlU8QFxpay4GLWhCb+rJ
egc=
-----END CERTIFICATE-----
